target datalayout = "e-m:e-p270:32:32-p271:32:32-p272:64:64-i64:64-i128:128-f80:128-n8:16:32:64-S128"
target triple = "x86_64-pc-linux-gnu"

%struct.mbedtls_mpi = type { ptr, i16, i16 }
%struct.psa_key_attributes_s = type { i16, i16, i32, %struct.psa_key_policy_s, i32 }
%struct.psa_key_policy_s = type { i32, i32, i32 }

@mbedtls_psa_ffdh_set_prime_generator.dhm_G_2048 = internal constant [1 x i8] c"\02", align 1
@mbedtls_psa_ffdh_set_prime_generator.dhm_G_3072 = internal constant [1 x i8] c"\02", align 1
@mbedtls_psa_ffdh_set_prime_generator.dhm_G_4096 = internal constant [1 x i8] c"\02", align 1
@mbedtls_psa_ffdh_set_prime_generator.dhm_G_6144 = internal constant [1 x i8] c"\02", align 1
@mbedtls_psa_ffdh_set_prime_generator.dhm_G_8192 = internal constant [1 x i8] c"\02", align 1

; Function Attrs: nounwind uwtable
define internal i32 @mbedtls_psa_ffdh_set_prime_generator(i64 noundef %0, ptr noundef %1, ptr noundef %2) #0 {
  %4 = alloca i32, align 4
  %5 = alloca i64, align 8
  %6 = alloca ptr, align 8
  %7 = alloca ptr, align 8
  %8 = alloca ptr, align 8
  %9 = alloca ptr, align 8
  %10 = alloca i64, align 8
  %11 = alloca i64, align 8
  %12 = alloca i32, align 4
  %13 = alloca i32, align 4
  store i64 %0, ptr %5, align 8, !tbaa !10
  store ptr %1, ptr %6, align 8, !tbaa !22
  store ptr %2, ptr %7, align 8, !tbaa !22
  call void @llvm.lifetime.start.p0(i64 8, ptr %8) #6
  store ptr null, ptr %8, align 8, !tbaa !8
  call void @llvm.lifetime.start.p0(i64 8, ptr %9) #6
  store ptr null, ptr %9, align 8, !tbaa !8
  call void @llvm.lifetime.start.p0(i64 8, ptr %10) #6
  store i64 0, ptr %10, align 8, !tbaa !10
  call void @llvm.lifetime.start.p0(i64 8, ptr %11) #6
  store i64 0, ptr %11, align 8, !tbaa !10
  call void @llvm.lifetime.start.p0(i64 4, ptr %12) #6
  store i32 -110, ptr %12, align 4, !tbaa !14
  %14 = load ptr, ptr %6, align 8, !tbaa !22
  %15 = icmp eq ptr %14, null
  br i1 %15, label %16, label %20

16:                                               ; preds = %3
  %17 = load ptr, ptr %7, align 8, !tbaa !22
  %18 = icmp eq ptr %17, null
  br i1 %18, label %19, label %20

19:                                               ; preds = %16
  store i32 -135, ptr %4, align 4
  store i32 1, ptr %13, align 4
  br label %64

20:                                               ; preds = %16, %3
  %21 = load i64, ptr %5, align 8, !tbaa !10
  switch i64 %21, label %27 [
    i64 256, label %22
    i64 384, label %23
    i64 512, label %24
    i64 768, label %25
    i64 1024, label %26
  ]

22:                                               ; preds = %20
  store ptr @mbedtls_psa_ffdh_set_prime_generator.dhm_P_2048, ptr %8, align 8, !tbaa !8
  store ptr @mbedtls_psa_ffdh_set_prime_generator.dhm_G_2048, ptr %9, align 8, !tbaa !8
  store i64 256, ptr %10, align 8, !tbaa !10
  store i64 1, ptr %11, align 8, !tbaa !10
  br label %28

23:                                               ; preds = %20
  store ptr @mbedtls_psa_ffdh_set_prime_generator.dhm_P_3072, ptr %8, align 8, !tbaa !8
  store ptr @mbedtls_psa_ffdh_set_prime_generator.dhm_G_3072, ptr %9, align 8, !tbaa !8
  store i64 384, ptr %10, align 8, !tbaa !10
  store i64 1, ptr %11, align 8, !tbaa !10
  br label %28

24:                                               ; preds = %20
  store ptr @mbedtls_psa_ffdh_set_prime_generator.dhm_P_4096, ptr %8, align 8, !tbaa !8
  store ptr @mbedtls_psa_ffdh_set_prime_generator.dhm_G_4096, ptr %9, align 8, !tbaa !8
  store i64 512, ptr %10, align 8, !tbaa !10
  store i64 1, ptr %11, align 8, !tbaa !10
  br label %28

25:                                               ; preds = %20
  store ptr @mbedtls_psa_ffdh_set_prime_generator.dhm_P_6144, ptr %8, align 8, !tbaa !8
  store ptr @mbedtls_psa_ffdh_set_prime_generator.dhm_G_6144, ptr %9, align 8, !tbaa !8
  store i64 768, ptr %10, align 8, !tbaa !10
  store i64 1, ptr %11, align 8, !tbaa !10
  br label %28

26:                                               ; preds = %20
  store ptr @mbedtls_psa_ffdh_set_prime_generator.dhm_P_8192, ptr %8, align 8, !tbaa !8
  store ptr @mbedtls_psa_ffdh_set_prime_generator.dhm_G_8192, ptr %9, align 8, !tbaa !8
  store i64 1024, ptr %10, align 8, !tbaa !10
  store i64 1, ptr %11, align 8, !tbaa !10
  br label %28

27:                                               ; preds = %20
  store i32 -135, ptr %4, align 4
  store i32 1, ptr %13, align 4
  br label %64

28:                                               ; preds = %26, %25, %24, %23, %22
  %29 = load ptr, ptr %6, align 8, !tbaa !22
  %30 = icmp ne ptr %29, null
  br i1 %30, label %31, label %42

31:                                               ; preds = %28
  br label %32

32:                                               ; preds = %31
  %33 = load ptr, ptr %6, align 8, !tbaa !22
  %34 = load ptr, ptr %8, align 8, !tbaa !8
  %35 = load i64, ptr %10, align 8, !tbaa !10
  %36 = call i32 @mbedtls_mpi_read_binary(ptr noundef %33, ptr noundef %34, i64 noundef %35)
  store i32 %36, ptr %12, align 4, !tbaa !14
  %37 = icmp ne i32 %36, 0
  br i1 %37, label %38, label %39

38:                                               ; preds = %32
  br label %57

39:                                               ; preds = %32
  br label %40

40:                                               ; preds = %39
  br label %41

41:                                               ; preds = %40
  br label %42

42:                                               ; preds = %41, %28
  %43 = load ptr, ptr %7, align 8, !tbaa !22
  %44 = icmp ne ptr %43, null
  br i1 %44, label %45, label %56

45:                                               ; preds = %42
  br label %46

46:                                               ; preds = %45
  %47 = load ptr, ptr %7, align 8, !tbaa !22
  %48 = load ptr, ptr %9, align 8, !tbaa !8
  %49 = load i64, ptr %11, align 8, !tbaa !10
  %50 = call i32 @mbedtls_mpi_read_binary(ptr noundef %47, ptr noundef %48, i64 noundef %49)
  store i32 %50, ptr %12, align 4, !tbaa !14
  %51 = icmp ne i32 %50, 0
  br i1 %51, label %52, label %53

52:                                               ; preds = %46
  br label %57

53:                                               ; preds = %46
  br label %54

54:                                               ; preds = %53
  br label %55

55:                                               ; preds = %54
  br label %56

56:                                               ; preds = %55, %42
  br label %57

57:                                               ; preds = %56, %52, %38
  %58 = load i32, ptr %12, align 4, !tbaa !14
  %59 = icmp ne i32 %58, 0
  br i1 %59, label %60, label %63

60:                                               ; preds = %57
  %61 = load i32, ptr %12, align 4, !tbaa !14
  %62 = call i32 @mbedtls_to_psa_error(i32 noundef %61)
  store i32 %62, ptr %4, align 4
  store i32 1, ptr %13, align 4
  br label %64

63:                                               ; preds = %57
  store i32 0, ptr %4, align 4
  store i32 1, ptr %13, align 4
  br label %64

64:                                               ; preds = %63, %60, %27, %19
  call void @llvm.lifetime.end.p0(i64 4, ptr %12) #6
  call void @llvm.lifetime.end.p0(i64 8, ptr %11) #6
  call void @llvm.lifetime.end.p0(i64 8, ptr %10) #6
  call void @llvm.lifetime.end.p0(i64 8, ptr %9) #6
  call void @llvm.lifetime.end.p0(i64 8, ptr %8) #6
  %65 = load i32, ptr %4, align 4
  ret i32 %65
}

; Function Attrs: inlinehint nounwind uwtable
define internal zeroext i16 @psa_get_key_type(ptr noundef %0) #5 {
  %2 = alloca ptr, align 8
  store ptr %0, ptr %2, align 8, !tbaa !3
  %3 = load ptr, ptr %2, align 8, !tbaa !3
  %4 = getelementptr inbounds nuw %struct.psa_key_attributes_s, ptr %3, i32 0, i32 0
  %5 = load i16, ptr %4, align 4, !tbaa !16
  ret i16 %5
}

; Function Attrs: nounwind uwtable
define hidden i32 @mbedtls_psa_ffdh_key_agreement(ptr noundef %0, ptr noundef %1, i64 noundef %2, ptr noundef %3, i64 noundef %4, ptr noundef %5, i64 noundef %6, ptr noundef %7) #0 {
  %9 = alloca i32, align 4
  %10 = alloca ptr, align 8
  %11 = alloca ptr, align 8
  %12 = alloca i64, align 8
  %13 = alloca ptr, align 8
  %14 = alloca i64, align 8
  %15 = alloca ptr, align 8
  %16 = alloca i64, align 8
  %17 = alloca ptr, align 8
  %18 = alloca i32, align 4
  %19 = alloca i32, align 4
  %20 = alloca %struct.mbedtls_mpi, align 8
  %21 = alloca %struct.mbedtls_mpi, align 8
  %22 = alloca %struct.mbedtls_mpi, align 8
  %23 = alloca %struct.mbedtls_mpi, align 8
  %24 = alloca %struct.mbedtls_mpi, align 8
  %25 = alloca i64, align 8
  %26 = alloca i32, align 4
  store ptr %0, ptr %10, align 8, !tbaa !3
  store ptr %1, ptr %11, align 8, !tbaa !8
  store i64 %2, ptr %12, align 8, !tbaa !10
  store ptr %3, ptr %13, align 8, !tbaa !8
  store i64 %4, ptr %14, align 8, !tbaa !10
  store ptr %5, ptr %15, align 8, !tbaa !8
  store i64 %6, ptr %16, align 8, !tbaa !10
  store ptr %7, ptr %17, align 8, !tbaa !12
  call void @llvm.lifetime.start.p0(i64 4, ptr %18) #6
  store i32 -110, ptr %18, align 4, !tbaa !14
  call void @llvm.lifetime.start.p0(i64 4, ptr %19) #6
  store i32 -151, ptr %19, align 4, !tbaa !14
  call void @llvm.lifetime.start.p0(i64 16, ptr %20) #6
  call void @llvm.lifetime.start.p0(i64 16, ptr %21) #6
  call void @llvm.lifetime.start.p0(i64 16, ptr %22) #6
  call void @llvm.lifetime.start.p0(i64 16, ptr %23) #6
  call void @llvm.lifetime.start.p0(i64 16, ptr %24) #6
  call void @llvm.lifetime.start.p0(i64 8, ptr %25) #6
  %27 = load i64, ptr %12, align 8, !tbaa !10
  store i64 %27, ptr %25, align 8, !tbaa !10
  %28 = load i64, ptr %12, align 8, !tbaa !10
  %29 = load i64, ptr %14, align 8, !tbaa !10
  %30 = icmp ne i64 %28, %29
  br i1 %30, label %35, label %31

31:                                               ; preds = %8
  %32 = load i64, ptr %25, align 8, !tbaa !10
  %33 = load i64, ptr %16, align 8, !tbaa !10
  %34 = icmp ugt i64 %32, %33
  br i1 %34, label %35, label %36

35:                                               ; preds = %31, %8
  store i32 -135, ptr %9, align 4
  store i32 1, ptr %26, align 4
  br label %103

36:                                               ; preds = %31
  %37 = load ptr, ptr %10, align 8, !tbaa !3
  %38 = call zeroext i16 @psa_get_key_type(ptr noundef %37)
  %39 = zext i16 %38 to i32
  %40 = and i32 %39, -256
  %41 = icmp eq i32 %40, 29184
  br i1 %41, label %43, label %42

42:                                               ; preds = %36
  store i32 -135, ptr %9, align 4
  store i32 1, ptr %26, align 4
  br label %103

43:                                               ; preds = %36
  call void @mbedtls_mpi_init(ptr noundef %20)
  call void @mbedtls_mpi_init(ptr noundef %21)
  call void @mbedtls_mpi_init(ptr noundef %22)
  call void @mbedtls_mpi_init(ptr noundef %23)
  call void @mbedtls_mpi_init(ptr noundef %24)
  %44 = load ptr, ptr %10, align 8, !tbaa !3
  %45 = getelementptr inbounds nuw %struct.psa_key_attributes_s, ptr %44, i32 0, i32 1
  %46 = load i16, ptr %45, align 2, !tbaa !21
  %47 = zext i16 %46 to i32
  %48 = add i32 %47, 7
  %49 = udiv i32 %48, 8
  %50 = zext i32 %49 to i64
  %51 = call i32 @mbedtls_psa_ffdh_set_prime_generator(i64 noundef %50, ptr noundef %20, ptr noundef %21)
  store i32 %51, ptr %19, align 4, !tbaa !14
  %52 = load i32, ptr %19, align 4, !tbaa !14
  %53 = icmp ne i32 %52, 0
  br i1 %53, label %54, label %55

54:                                               ; preds = %43
  br label %92

55:                                               ; preds = %43
  br label %56

56:                                               ; preds = %55
  %57 = load ptr, ptr %13, align 8, !tbaa !8
  %58 = load i64, ptr %14, align 8, !tbaa !10
  %59 = call i32 @mbedtls_mpi_read_binary(ptr noundef %22, ptr noundef %57, i64 noundef %58)
  store i32 %59, ptr %18, align 4, !tbaa !14
  %60 = icmp ne i32 %59, 0
  br i1 %60, label %61, label %62

61:                                               ; preds = %56
  br label %92

62:                                               ; preds = %56
  br label %63

63:                                               ; preds = %62
  br label %64

64:                                               ; preds = %63
  br label %65

65:                                               ; preds = %64
  %66 = load ptr, ptr %11, align 8, !tbaa !8
  %67 = load i64, ptr %12, align 8, !tbaa !10
  %68 = call i32 @mbedtls_mpi_read_binary(ptr noundef %23, ptr noundef %66, i64 noundef %67)
  store i32 %68, ptr %18, align 4, !tbaa !14
  %69 = icmp ne i32 %68, 0
  br i1 %69, label %70, label %71

70:                                               ; preds = %65
  br label %92

71:                                               ; preds = %65
  br label %72

72:                                               ; preds = %71
  br label %73

73:                                               ; preds = %72
  br label %74

74:                                               ; preds = %73
  %75 = call i32 @mbedtls_mpi_exp_mod(ptr noundef %24, ptr noundef %23, ptr noundef %22, ptr noundef %20, ptr noundef null)
  store i32 %75, ptr %18, align 4, !tbaa !14
  %76 = icmp ne i32 %75, 0
  br i1 %76, label %77, label %78

77:                                               ; preds = %74
  br label %92

78:                                               ; preds = %74
  br label %79

79:                                               ; preds = %78
  br label %80

80:                                               ; preds = %79
  br label %81

81:                                               ; preds = %80
  %82 = load ptr, ptr %15, align 8, !tbaa !8
  %83 = load i64, ptr %25, align 8, !tbaa !10
  %84 = call i32 @mbedtls_mpi_write_binary(ptr noundef %24, ptr noundef %82, i64 noundef %83)
  store i32 %84, ptr %18, align 4, !tbaa !14
  %85 = icmp ne i32 %84, 0
  br i1 %85, label %86, label %87

86:                                               ; preds = %81
  br label %92

87:                                               ; preds = %81
  br label %88

88:                                               ; preds = %87
  br label %89

89:                                               ; preds = %88
  %90 = load i64, ptr %25, align 8, !tbaa !10
  %91 = load ptr, ptr %17, align 8, !tbaa !12
  store i64 %90, ptr %91, align 8, !tbaa !10
  store i32 0, ptr %18, align 4, !tbaa !14
  br label %92

92:                                               ; preds = %89, %86, %77, %70, %61, %54
  call void @mbedtls_mpi_free(ptr noundef %20)
  call void @mbedtls_mpi_free(ptr noundef %21)
  call void @mbedtls_mpi_free(ptr noundef %22)
  call void @mbedtls_mpi_free(ptr noundef %23)
  call void @mbedtls_mpi_free(ptr noundef %24)
  %93 = load i32, ptr %19, align 4, !tbaa !14
  %94 = icmp eq i32 %93, 0
  br i1 %94, label %95, label %101

95:                                               ; preds = %92
  %96 = load i32, ptr %18, align 4, !tbaa !14
  %97 = icmp ne i32 %96, 0
  br i1 %97, label %98, label %101

98:                                               ; preds = %95
  %99 = load i32, ptr %18, align 4, !tbaa !14
  %100 = call i32 @mbedtls_to_psa_error(i32 noundef %99)
  store i32 %100, ptr %19, align 4, !tbaa !14
  br label %101

101:                                              ; preds = %98, %95, %92
  %102 = load i32, ptr %19, align 4, !tbaa !14
  store i32 %102, ptr %9, align 4
  store i32 1, ptr %26, align 4
  br label %103

103:                                              ; preds = %101, %42, %35
  call void @llvm.lifetime.end.p0(i64 8, ptr %25) #6
  call void @llvm.lifetime.end.p0(i64 16, ptr %24) #6
  call void @llvm.lifetime.end.p0(i64 16, ptr %23) #6
  call void @llvm.lifetime.end.p0(i64 16, ptr %22) #6
  call void @llvm.lifetime.end.p0(i64 16, ptr %21) #6
  call void @llvm.lifetime.end.p0(i64 16, ptr %20) #6
  call void @llvm.lifetime.end.p0(i64 4, ptr %19) #6
  call void @llvm.lifetime.end.p0(i64 4, ptr %18) #6
  %104 = load i32, ptr %9, align 4
  ret i32 %104
}