; Function Attrs: nounwind uwtable
define hidden i32 @mbedtls_psa_ffdh_key_agreement(ptr noundef readonly captures(none) %0, ptr noundef %1, i64 noundef %2, ptr noundef %3, i64 noundef %4, ptr noundef %5, i64 noundef %6, ptr noundef writeonly captures(none) %7) local_unnamed_addr #0 {
  %9 = alloca %struct.mbedtls_mpi, align 8
  %10 = alloca %struct.mbedtls_mpi, align 8
  %11 = alloca %struct.mbedtls_mpi, align 8
  %12 = alloca %struct.mbedtls_mpi, align 8
  %13 = alloca %struct.mbedtls_mpi, align 8
  call void @llvm.lifetime.start.p0(i64 16, ptr nonnull %9) #7
  call void @llvm.lifetime.start.p0(i64 16, ptr nonnull %10) #7
  call void @llvm.lifetime.start.p0(i64 16, ptr nonnull %11) #7
  call void @llvm.lifetime.start.p0(i64 16, ptr nonnull %12) #7
  call void @llvm.lifetime.start.p0(i64 16, ptr nonnull %13) #7
  %.not = icmp ne i64 %2, %4
  %14 = icmp ugt i64 %2, %6
  %or.cond34 = or i1 %.not, %14
  br i1 %or.cond34, label %43, label %15

15:                                               ; preds = %8
  %.val = load i16, ptr %0, align 4, !tbaa !3
  %16 = and i16 %.val, -256
  %17 = icmp eq i16 %16, 29184
  br i1 %17, label %18, label %43

18:                                               ; preds = %15
  call void @mbedtls_mpi_init(ptr noundef nonnull %9) #7
  call void @mbedtls_mpi_init(ptr noundef nonnull %10) #7
  call void @mbedtls_mpi_init(ptr noundef nonnull %11) #7
  call void @mbedtls_mpi_init(ptr noundef nonnull %12) #7
  call void @mbedtls_mpi_init(ptr noundef nonnull %13) #7
  %19 = getelementptr inbounds nuw i8, ptr %0, i64 2
  %20 = load i16, ptr %19, align 2, !tbaa !12
  %21 = zext i16 %20 to i64
  %22 = add nuw nsw i64 %21, 7
  %23 = lshr i64 %22, 3
  %24 = add nsw i64 %23, -256
  %25 = call i64 @llvm.fshl.i64(i64 %24, i64 %24, i64 57)
  %26 = icmp ult i64 %25, 7
  br i1 %26, label %switch.hole_check, label %mbedtls_psa_ffdh_set_prime_generator.exit.thread44

switch.hole_check:                                ; preds = %18
  %switch.maskindex = trunc nuw i64 %25 to i8
  %switch.shifted = lshr i8 87, %switch.maskindex
  %switch.lobit = trunc i8 %switch.shifted to i1
  br i1 %switch.lobit, label %switch.lookup, label %mbedtls_psa_ffdh_set_prime_generator.exit.thread44

switch.lookup:                                    ; preds = %switch.hole_check
  %switch.gep = getelementptr inbounds nuw [7 x ptr], ptr @switch.table.mbedtls_psa_ffdh_key_agreement, i64 0, i64 %25
  %switch.load = load ptr, ptr %switch.gep, align 8
  %switch.gep47 = getelementptr inbounds nuw [7 x ptr], ptr @switch.table.mbedtls_psa_ffdh_key_agreement.5, i64 0, i64 %25
  %switch.load48 = load ptr, ptr %switch.gep47, align 8
  %switch.gep49 = getelementptr inbounds nuw [7 x i64], ptr @switch.table.mbedtls_psa_ffdh_key_agreement.6, i64 0, i64 %25
  %switch.load50 = load i64, ptr %switch.gep49, align 8
  %27 = call i32 @mbedtls_mpi_read_binary(ptr noundef nonnull %9, ptr noundef nonnull %switch.load, i64 noundef %switch.load50) #7
  %28 = icmp eq i32 %27, 0
  br i1 %28, label %29, label %mbedtls_psa_ffdh_set_prime_generator.exit

29:                                               ; preds = %switch.lookup
  %30 = call i32 @mbedtls_mpi_read_binary(ptr noundef nonnull %10, ptr noundef nonnull %switch.load48, i64 noundef 1) #7
  %.not.i = icmp eq i32 %30, 0
  br i1 %.not.i, label %mbedtls_psa_ffdh_set_prime_generator.exit.thread, label %mbedtls_psa_ffdh_set_prime_generator.exit

mbedtls_psa_ffdh_set_prime_generator.exit:        ; preds = %switch.lookup, %29
  %.0.i37 = phi i32 [ %30, %29 ], [ %27, %switch.lookup ]
  %31 = call i32 @mbedtls_to_psa_error(i32 noundef %.0.i37) #7
  %.not29 = icmp eq i32 %31, 0
  br i1 %.not29, label %mbedtls_psa_ffdh_set_prime_generator.exit.thread, label %mbedtls_psa_ffdh_set_prime_generator.exit.thread44

mbedtls_psa_ffdh_set_prime_generator.exit.thread: ; preds = %29, %mbedtls_psa_ffdh_set_prime_generator.exit
  %32 = call i32 @mbedtls_mpi_read_binary(ptr noundef nonnull %11, ptr noundef %3, i64 noundef %2) #7
  %.not30 = icmp eq i32 %32, 0
  br i1 %.not30, label %33, label %mbedtls_psa_ffdh_set_prime_generator.exit.thread44

33:                                               ; preds = %mbedtls_psa_ffdh_set_prime_generator.exit.thread
  %34 = call i32 @mbedtls_mpi_read_binary(ptr noundef nonnull %12, ptr noundef %1, i64 noundef %2) #7
  %.not31 = icmp eq i32 %34, 0
  br i1 %.not31, label %35, label %mbedtls_psa_ffdh_set_prime_generator.exit.thread44

35:                                               ; preds = %33
  %36 = call i32 @mbedtls_mpi_exp_mod(ptr noundef nonnull %13, ptr noundef nonnull %12, ptr noundef nonnull %11, ptr noundef nonnull %9, ptr noundef null) #7
  %.not32 = icmp eq i32 %36, 0
  br i1 %.not32, label %37, label %mbedtls_psa_ffdh_set_prime_generator.exit.thread44

37:                                               ; preds = %35
  %38 = call i32 @mbedtls_mpi_write_binary(ptr noundef nonnull %13, ptr noundef %5, i64 noundef %2) #7
  %.not33 = icmp eq i32 %38, 0
  br i1 %.not33, label %39, label %mbedtls_psa_ffdh_set_prime_generator.exit.thread44

39:                                               ; preds = %37
  store i64 %2, ptr %7, align 8, !tbaa !10
  br label %mbedtls_psa_ffdh_set_prime_generator.exit.thread44

mbedtls_psa_ffdh_set_prime_generator.exit.thread44: ; preds = %switch.hole_check, %18, %37, %35, %33, %mbedtls_psa_ffdh_set_prime_generator.exit.thread, %mbedtls_psa_ffdh_set_prime_generator.exit, %39
  %.not2942 = phi i1 [ false, %mbedtls_psa_ffdh_set_prime_generator.exit ], [ true, %mbedtls_psa_ffdh_set_prime_generator.exit.thread ], [ true, %33 ], [ true, %35 ], [ true, %37 ], [ true, %39 ], [ false, %18 ], [ false, %switch.hole_check ]
  %.020.i40 = phi i32 [ %31, %mbedtls_psa_ffdh_set_prime_generator.exit ], [ 0, %mbedtls_psa_ffdh_set_prime_generator.exit.thread ], [ 0, %33 ], [ 0, %35 ], [ 0, %37 ], [ 0, %39 ], [ -135, %18 ], [ -135, %switch.hole_check ]
  %.022 = phi i32 [ -110, %mbedtls_psa_ffdh_set_prime_generator.exit ], [ %32, %mbedtls_psa_ffdh_set_prime_generator.exit.thread ], [ %34, %33 ], [ %36, %35 ], [ %38, %37 ], [ 0, %39 ], [ -110, %18 ], [ -110, %switch.hole_check ]
  call void @mbedtls_mpi_free(ptr noundef nonnull %9) #7
  call void @mbedtls_mpi_free(ptr noundef nonnull %10) #7
  call void @mbedtls_mpi_free(ptr noundef nonnull %11) #7
  call void @mbedtls_mpi_free(ptr noundef nonnull %12) #7
  call void @mbedtls_mpi_free(ptr noundef nonnull %13) #7
  %40 = icmp ne i32 %.022, 0
  %or.cond = and i1 %.not2942, %40
  br i1 %or.cond, label %41, label %43

41:                                               ; preds = %mbedtls_psa_ffdh_set_prime_generator.exit.thread44
  %42 = call i32 @mbedtls_to_psa_error(i32 noundef %.022) #7
  br label %43

43:                                               ; preds = %mbedtls_psa_ffdh_set_prime_generator.exit.thread44, %41, %15, %8
  %.0 = phi i32 [ -135, %8 ], [ -135, %15 ], [ %42, %41 ], [ %.020.i40, %mbedtls_psa_ffdh_set_prime_generator.exit.thread44 ]
  call void @llvm.lifetime.end.p0(i64 16, ptr nonnull %13) #7
  call void @llvm.lifetime.end.p0(i64 16, ptr nonnull %12) #7
  call void @llvm.lifetime.end.p0(i64 16, ptr nonnull %11) #7
  call void @llvm.lifetime.end.p0(i64 16, ptr nonnull %10) #7
  call void @llvm.lifetime.end.p0(i64 16, ptr nonnull %9) #7
  ret i32 %.0
}